; Function Attrs: nounwind uwtable
define hidden void @zif_stream_context_set_default(ptr noundef %0, ptr nocapture noundef writeonly %1) local_unnamed_addr #0 {
  %3 = getelementptr inbounds i8, ptr %0, i64 44
  %4 = load i32, ptr %3, align 4
  %cond = icmp eq i32 %4, 1
  br i1 %cond, label %5, label %.thread

.thread:                                          ; preds = %2
  tail call void @zend_wrong_parameters_count_error(i32 noundef 1, i32 noundef 1) #10
  br label %9

5:                                                ; preds = %2
  %6 = getelementptr inbounds i8, ptr %0, i64 80
  %7 = getelementptr inbounds i8, ptr %0, i64 88
  %8 = load i8, ptr %7, align 8
  %.not72 = icmp eq i8 %8, 7
  br i1 %.not72, label %10, label %9

9:                                                ; preds = %5, %.thread
  %.06385 = phi i32 [ 1, %.thread ], [ 9, %5 ]
  %.06484 = phi i32 [ 0, %.thread ], [ 1, %5 ]
  %.06583 = phi ptr [ null, %.thread ], [ %6, %5 ]
  %.06682 = phi i32 [ 0, %.thread ], [ 6, %5 ]
  tail call void @zend_wrong_parameter_error(i32 noundef %.06385, i32 noundef %.06484, ptr noundef null, i32 noundef %.06682, ptr noundef %.06583) #10
  br label %30

10:                                               ; preds = %5
  %11 = load ptr, ptr %6, align 8
  %12 = load ptr, ptr getelementptr inbounds (%struct.php_file_globals, ptr @file_globals, i64 0, i32 7), align 8
  %13 = icmp eq ptr %12, null
  br i1 %13, label %14, label %16

14:                                               ; preds = %10
  %15 = tail call ptr @php_stream_context_alloc() #10
  store ptr %15, ptr getelementptr inbounds (%struct.php_file_globals, ptr @file_globals, i64 0, i32 7), align 8
  br label %16

16:                                               ; preds = %14, %10
  %17 = phi ptr [ %15, %14 ], [ %12, %10 ]
  %18 = tail call fastcc i32 @parse_context_options(ptr noundef %17, ptr noundef %11), !range !5
  %19 = icmp eq i32 %18, -1
  br i1 %19, label %20, label %23

20:                                               ; preds = %16
  %21 = load ptr, ptr getelementptr inbounds (%struct._zend_executor_globals, ptr @executor_globals, i64 0, i32 50), align 8
  %22 = icmp ne ptr %21, null
  tail call void @llvm.assume(i1 %22)
  br label %30

23:                                               ; preds = %16
  %24 = getelementptr inbounds i8, ptr %17, i64 24
  %25 = load ptr, ptr %24, align 8
  store ptr %25, ptr %1, align 8
  %26 = getelementptr inbounds i8, ptr %1, i64 8
  store i32 265, ptr %26, align 8
  %27 = load ptr, ptr %24, align 8
  %28 = load i32, ptr %27, align 4
  %29 = add i32 %28, 1
  store i32 %29, ptr %27, align 4
  br label %30

30:                                               ; preds = %23, %20, %9
  ret void
}